target datalayout = "e-m:e-p270:32:32-p271:32:32-p272:64:64-i64:64-i128:128-f80:128-n8:16:32:64-S128"
target triple = "x86_64-pc-linux-gnu"

%union.lv_style_value_t = type { ptr }

; Function Attrs: inlinehint nounwind uwtable
define internal zeroext i16 @lv_obj_get_style_layout(ptr noundef %0, i32 noundef %1) #3 {
  %3 = alloca ptr, align 8
  %4 = alloca i32, align 4
  %5 = alloca %union.lv_style_value_t, align 8
  store ptr %0, ptr %3, align 8, !tbaa !3
  store i32 %1, ptr %4, align 4, !tbaa !7
  call void @llvm.lifetime.start.p0(i64 8, ptr %5) #5
  %6 = load ptr, ptr %3, align 8, !tbaa !3
  %7 = load i32, ptr %4, align 4, !tbaa !7
  %8 = call ptr @lv_obj_get_style_prop(ptr noundef %6, i32 noundef %7, i8 noundef zeroext 22)
  %9 = getelementptr inbounds nuw %union.lv_style_value_t, ptr %5, i32 0, i32 0
  store ptr %8, ptr %9, align 8
  %10 = load i32, ptr %5, align 8, !tbaa !9
  %11 = trunc i32 %10 to i16
  call void @llvm.lifetime.end.p0(i64 8, ptr %5) #5
  ret i16 %11
}

; Function Attrs: nounwind uwtable
define zeroext i1 @lv_obj_is_layout_positioned(ptr noundef %0) #0 {
  %2 = alloca i1, align 1
  %3 = alloca ptr, align 8
  %4 = alloca ptr, align 8
  %5 = alloca i32, align 4
  %6 = alloca i32, align 4
  store ptr %0, ptr %3, align 8, !tbaa !3
  %7 = load ptr, ptr %3, align 8, !tbaa !3
  %8 = call zeroext i1 @lv_obj_has_flag_any(ptr noundef %7, i32 noundef 393217)
  br i1 %8, label %9, label %10

9:                                                ; preds = %1
  store i1 false, ptr %2, align 1
  br label %26

10:                                               ; preds = %1
  call void @llvm.lifetime.start.p0(i64 8, ptr %4) #5
  %11 = load ptr, ptr %3, align 8, !tbaa !3
  %12 = call ptr @lv_obj_get_parent(ptr noundef %11)
  store ptr %12, ptr %4, align 8, !tbaa !3
  %13 = load ptr, ptr %4, align 8, !tbaa !3
  %14 = icmp eq ptr %13, null
  br i1 %14, label %15, label %16

15:                                               ; preds = %10
  store i1 false, ptr %2, align 1
  store i32 1, ptr %5, align 4
  br label %25

16:                                               ; preds = %10
  call void @llvm.lifetime.start.p0(i64 4, ptr %6) #5
  %17 = load ptr, ptr %4, align 8, !tbaa !3
  %18 = call zeroext i16 @lv_obj_get_style_layout(ptr noundef %17, i32 noundef 0)
  %19 = zext i16 %18 to i32
  store i32 %19, ptr %6, align 4, !tbaa !7
  %20 = load i32, ptr %6, align 4, !tbaa !7
  %21 = icmp ne i32 %20, 0
  br i1 %21, label %22, label %23

22:                                               ; preds = %16
  store i1 true, ptr %2, align 1
  store i32 1, ptr %5, align 4
  br label %24

23:                                               ; preds = %16
  store i1 false, ptr %2, align 1
  store i32 1, ptr %5, align 4
  br label %24

24:                                               ; preds = %23, %22
  call void @llvm.lifetime.end.p0(i64 4, ptr %6) #5
  br label %25

25:                                               ; preds = %24, %15
  call void @llvm.lifetime.end.p0(i64 8, ptr %4) #5
  br label %26

26:                                               ; preds = %25, %9
  %27 = load i1, ptr %2, align 1
  ret i1 %27
}