; Function Attrs: nounwind uwtable
define zeroext i1 @lv_obj_is_layout_positioned(ptr noundef %0) local_unnamed_addr #0 {
  %2 = tail call zeroext i1 @lv_obj_has_flag_any(ptr noundef %0, i32 noundef 393217) #8
  br i1 %2, label %10, label %3

3:                                                ; preds = %1
  %4 = tail call ptr @lv_obj_get_parent(ptr noundef %0) #8
  %5 = icmp eq ptr %4, null
  br i1 %5, label %10, label %6

6:                                                ; preds = %3
  %7 = tail call ptr @lv_obj_get_style_prop(ptr noundef nonnull %4, i32 noundef 0, i8 noundef zeroext 22) #8
  %8 = ptrtoint ptr %7 to i64
  %9 = and i64 %8, 65535
  %.not = icmp ne i64 %9, 0
  br label %10

10:                                               ; preds = %6, %3, %1
  %.0 = phi i1 [ false, %1 ], [ %.not, %6 ], [ false, %3 ]
  ret i1 %.0
}